target datalayout = "e-m:e-p270:32:32-p271:32:32-p272:64:64-i64:64-i128:128-f80:128-n8:16:32:64-S128"
target triple = "x86_64-pc-linux-gnu"

%"struct.llvm::opt::OptTable::Info" = type { %"class.llvm::ArrayRef.0", %"class.llvm::StringLiteral", ptr, %"struct.std::array", ptr, i32, i8, i8, i32, i32, i16, i16, ptr, ptr }
%"class.llvm::ArrayRef.0" = type { ptr, i64 }
%"class.llvm::StringLiteral" = type { %"class.llvm::StringRef" }
%"class.llvm::StringRef" = type { ptr, i64 }
%"struct.std::array" = type { [1 x %"struct.std::pair"] }
%"struct.std::pair" = type { %"struct.std::array.1", ptr }
%"struct.std::array.1" = type { [2 x i32] }
%class.anon.11 = type { i32, i32 }

; Function Attrs: mustprogress nounwind uwtable
define internal noundef zeroext i1 @"_ZZNK4llvm3opt8OptTable11findNearestENS_9StringRefERNSt7__cxx1112basic_stringIcSt11char_traitsIcESaIcEEEjjjjENK3$_0clERKNS1_4InfoE"(ptr noundef nonnull align 4 dereferenceable(8) %0, ptr noundef nonnull align 8 dereferenceable(104) %1) #0 align 2 {
  %3 = alloca i1, align 1
  %4 = alloca ptr, align 8
  %5 = alloca ptr, align 8
  store ptr %0, ptr %4, align 8
  store ptr %1, ptr %5, align 8
  %6 = load ptr, ptr %4, align 8
  %7 = getelementptr inbounds nuw %class.anon.11, ptr %6, i32 0, i32 0
  %8 = load i32, ptr %7, align 4
  %9 = icmp ne i32 %8, 0
  br i1 %9, label %10, label %19

10:                                               ; preds = %2
  %11 = load ptr, ptr %5, align 8
  %12 = getelementptr inbounds nuw %"struct.llvm::opt::OptTable::Info", ptr %11, i32 0, i32 8
  %13 = load i32, ptr %12, align 8
  %14 = getelementptr inbounds nuw %class.anon.11, ptr %6, i32 0, i32 0
  %15 = load i32, ptr %14, align 4
  %16 = and i32 %13, %15
  %17 = icmp ne i32 %16, 0
  br i1 %17, label %19, label %18

18:                                               ; preds = %10
  store i1 true, ptr %3, align 1
  br label %29

19:                                               ; preds = %10, %2
  %20 = load ptr, ptr %5, align 8
  %21 = getelementptr inbounds nuw %"struct.llvm::opt::OptTable::Info", ptr %20, i32 0, i32 8
  %22 = load i32, ptr %21, align 8
  %23 = getelementptr inbounds nuw %class.anon.11, ptr %6, i32 0, i32 1
  %24 = load i32, ptr %23, align 4
  %25 = and i32 %22, %24
  %26 = icmp ne i32 %25, 0
  br i1 %26, label %27, label %28

27:                                               ; preds = %19
  store i1 true, ptr %3, align 1
  br label %29

28:                                               ; preds = %19
  store i1 false, ptr %3, align 1
  br label %29

29:                                               ; preds = %28, %27, %18
  %30 = load i1, ptr %3, align 1
  ret i1 %30
}

; Function Attrs: mustprogress nounwind uwtable
define linkonce_odr hidden noundef ptr @_ZNKSt9_Any_data9_M_accessEv(ptr noundef nonnull align 8 dereferenceable(16) %0) #0 comdat align 2 {
  %2 = alloca ptr, align 8
  store ptr %0, ptr %2, align 8
  %3 = load ptr, ptr %2, align 8
  %4 = getelementptr inbounds [16 x i8], ptr %3, i64 0, i64 0
  ret ptr %4
}

; Function Attrs: mustprogress nounwind uwtable
define internal noundef zeroext i1 @"_ZSt13__invoke_implIbRZNK4llvm3opt8OptTable11findNearestENS0_9StringRefERNSt7__cxx1112basic_stringIcSt11char_traitsIcESaIcEEEjjjjE3$_0JRKNS2_4InfoEEET_St14__invoke_otherOT0_DpOT1_"(ptr noundef nonnull align 4 dereferenceable(8) %0, ptr noundef nonnull align 8 dereferenceable(104) %1) #0 {
  %3 = alloca ptr, align 8
  %4 = alloca ptr, align 8
  store ptr %0, ptr %3, align 8
  store ptr %1, ptr %4, align 8
  %5 = load ptr, ptr %3, align 8
  %6 = load ptr, ptr %4, align 8
  %7 = call noundef zeroext i1 @"_ZZNK4llvm3opt8OptTable11findNearestENS_9StringRefERNSt7__cxx1112basic_stringIcSt11char_traitsIcESaIcEEEjjjjENK3$_0clERKNS1_4InfoE"(ptr noundef nonnull align 4 dereferenceable(8) %5, ptr noundef nonnull align 8 dereferenceable(104) %6)
  ret i1 %7
}

; Function Attrs: mustprogress nounwind uwtable
define internal noundef nonnull align 4 dereferenceable(8) ptr @"_ZNKSt9_Any_data9_M_accessIZNK4llvm3opt8OptTable11findNearestENS1_9StringRefERNSt7__cxx1112basic_stringIcSt11char_traitsIcESaIcEEEjjjjE3$_0EERKT_v"(ptr noundef nonnull align 8 dereferenceable(16) %0) #0 align 2 {
  %2 = alloca ptr, align 8
  store ptr %0, ptr %2, align 8
  %3 = load ptr, ptr %2, align 8
  %4 = call noundef ptr @_ZNKSt9_Any_data9_M_accessEv(ptr noundef nonnull align 8 dereferenceable(16) %3) #12
  ret ptr %4
}

; Function Attrs: mustprogress nounwind uwtable
define internal noundef zeroext i1 @"_ZSt10__invoke_rIbRZNK4llvm3opt8OptTable11findNearestENS0_9StringRefERNSt7__cxx1112basic_stringIcSt11char_traitsIcESaIcEEEjjjjE3$_0JRKNS2_4InfoEEENSt9enable_ifIX16is_invocable_r_vIT_T0_DpT1_EESH_E4typeEOSI_DpOSJ_"(ptr noundef nonnull align 4 dereferenceable(8) %0, ptr noundef nonnull align 8 dereferenceable(104) %1) #0 {
  %3 = alloca ptr, align 8
  %4 = alloca ptr, align 8
  store ptr %0, ptr %3, align 8
  store ptr %1, ptr %4, align 8
  %5 = load ptr, ptr %3, align 8
  %6 = load ptr, ptr %4, align 8
  %7 = call noundef zeroext i1 @"_ZSt13__invoke_implIbRZNK4llvm3opt8OptTable11findNearestENS0_9StringRefERNSt7__cxx1112basic_stringIcSt11char_traitsIcESaIcEEEjjjjE3$_0JRKNS2_4InfoEEET_St14__invoke_otherOT0_DpOT1_"(ptr noundef nonnull align 4 dereferenceable(8) %5, ptr noundef nonnull align 8 dereferenceable(104) %6)
  ret i1 %7
}

; Function Attrs: mustprogress nounwind uwtable
define internal noundef ptr @"_ZNSt14_Function_base13_Base_managerIZNK4llvm3opt8OptTable11findNearestENS1_9StringRefERNSt7__cxx1112basic_stringIcSt11char_traitsIcESaIcEEEjjjjE3$_0E14_M_get_pointerERKSt9_Any_data"(ptr noundef nonnull align 8 dereferenceable(16) %0) #0 align 2 {
  %2 = alloca ptr, align 8
  %3 = alloca ptr, align 8
  store ptr %0, ptr %2, align 8
  %4 = load ptr, ptr %2, align 8
  %5 = call noundef nonnull align 4 dereferenceable(8) ptr @"_ZNKSt9_Any_data9_M_accessIZNK4llvm3opt8OptTable11findNearestENS1_9StringRefERNSt7__cxx1112basic_stringIcSt11char_traitsIcESaIcEEEjjjjE3$_0EERKT_v"(ptr noundef nonnull align 8 dereferenceable(16) %4) #12
  store ptr %5, ptr %3, align 8
  %6 = load ptr, ptr %3, align 8
  ret ptr %6
}

; Function Attrs: mustprogress nounwind uwtable
define internal noundef zeroext i1 @"_ZNSt17_Function_handlerIFbRKN4llvm3opt8OptTable4InfoEEZNKS2_11findNearestENS0_9StringRefERNSt7__cxx1112basic_stringIcSt11char_traitsIcESaIcEEEjjjjE3$_0E9_M_invokeERKSt9_Any_dataS5_"(ptr noundef nonnull align 8 dereferenceable(16) %0, ptr noundef nonnull align 8 dereferenceable(104) %1) #0 align 2 {
  %3 = alloca ptr, align 8
  %4 = alloca ptr, align 8
  store ptr %0, ptr %3, align 8
  store ptr %1, ptr %4, align 8
  %5 = load ptr, ptr %3, align 8
  %6 = call noundef ptr @"_ZNSt14_Function_base13_Base_managerIZNK4llvm3opt8OptTable11findNearestENS1_9StringRefERNSt7__cxx1112basic_stringIcSt11char_traitsIcESaIcEEEjjjjE3$_0E14_M_get_pointerERKSt9_Any_data"(ptr noundef nonnull align 8 dereferenceable(16) %5) #12
  %7 = load ptr, ptr %4, align 8
  %8 = call noundef zeroext i1 @"_ZSt10__invoke_rIbRZNK4llvm3opt8OptTable11findNearestENS0_9StringRefERNSt7__cxx1112basic_stringIcSt11char_traitsIcESaIcEEEjjjjE3$_0JRKNS2_4InfoEEENSt9enable_ifIX16is_invocable_r_vIT_T0_DpT1_EESH_E4typeEOSI_DpOSJ_"(ptr noundef nonnull align 4 dereferenceable(8) %6, ptr noundef nonnull align 8 dereferenceable(104) %7)
  ret i1 %8
}