; Function Attrs: mustprogress nofree norecurse nosync nounwind willreturn memory(argmem: read) uwtable
define internal noundef zeroext i1 @"_ZNSt17_Function_handlerIFbRKN4llvm3opt8OptTable4InfoEEZNKS2_11findNearestENS0_9StringRefERNSt7__cxx1112basic_stringIcSt11char_traitsIcESaIcEEEjjjjE3$_0E9_M_invokeERKSt9_Any_dataS5_"(ptr noundef nonnull readonly align 8 captures(none) dereferenceable(16) %0, ptr noundef nonnull readonly align 8 captures(none) dereferenceable(104) %1) #13 align 2 {
  %.val = load i32, ptr %0, align 8
  %3 = getelementptr inbounds nuw i8, ptr %1, i64 72
  %.val3 = load i32, ptr %3, align 8
  %.not.i.i.i = icmp ne i32 %.val, 0
  %4 = and i32 %.val3, %.val
  %.not5.i.i.i = icmp eq i32 %4, 0
  %or.cond.i.i.i = select i1 %.not.i.i.i, i1 %.not5.i.i.i, i1 false
  br i1 %or.cond.i.i.i, label %"_ZSt10__invoke_rIbRZNK4llvm3opt8OptTable11findNearestENS0_9StringRefERNSt7__cxx1112basic_stringIcSt11char_traitsIcESaIcEEEjjjjE3$_0JRKNS2_4InfoEEENSt9enable_ifIX16is_invocable_r_vIT_T0_DpT1_EESH_E4typeEOSI_DpOSJ_.exit", label %5

5:                                                ; preds = %2
  %6 = getelementptr inbounds nuw i8, ptr %0, i64 4
  %.val2 = load i32, ptr %6, align 4
  %7 = and i32 %.val2, %.val3
  %.not6.i.i.i = icmp ne i32 %7, 0
  br label %"_ZSt10__invoke_rIbRZNK4llvm3opt8OptTable11findNearestENS0_9StringRefERNSt7__cxx1112basic_stringIcSt11char_traitsIcESaIcEEEjjjjE3$_0JRKNS2_4InfoEEENSt9enable_ifIX16is_invocable_r_vIT_T0_DpT1_EESH_E4typeEOSI_DpOSJ_.exit"

"_ZSt10__invoke_rIbRZNK4llvm3opt8OptTable11findNearestENS0_9StringRefERNSt7__cxx1112basic_stringIcSt11char_traitsIcESaIcEEEjjjjE3$_0JRKNS2_4InfoEEENSt9enable_ifIX16is_invocable_r_vIT_T0_DpT1_EESH_E4typeEOSI_DpOSJ_.exit": ; preds = %2, %5
  %.0.i.i.i = phi i1 [ %.not6.i.i.i, %5 ], [ true, %2 ]
  ret i1 %.0.i.i.i
}